target datalayout = "e-m:e-p270:32:32-p271:32:32-p272:64:64-i64:64-i128:128-f80:128-n8:16:32:64-S128"
target triple = "x86_64-pc-linux-gnu"

%struct.sockaddr_in = type { i16, i16, %struct.in_addr, [8 x i8] }
%struct.in_addr = type { i32 }
%struct.termios = type { i32, i32, i32, i32, i8, [32 x i8], i32, i32 }
%union.__CONST_SOCKADDR_ARG = type { ptr }

@.str = private unnamed_addr constant [10 x i8] c"SIGNDPASS\00", align 1
@.str.1 = private unnamed_addr constant [11 x i8] c"Password: \00", align 1
@.str.2 = private unnamed_addr constant [29 x i8] c"getdsig: tcgetattr() failed\0A\00", align 1
@.str.3 = private unnamed_addr constant [29 x i8] c"getdsig: tcsetattr() failed\0A\00", align 1
@.str.4 = private unnamed_addr constant [5 x i8] c"%30s\00", align 1
@.str.5 = private unnamed_addr constant [29 x i8] c"getdsig: Can't get password\0A\00", align 1
@.str.6 = private unnamed_addr constant [2 x i8] c"\0A\00", align 1
@.str.7 = private unnamed_addr constant [9 x i8] c"socket()\00", align 1
@.str.8 = private unnamed_addr constant [30 x i8] c"getdsig: Can't create socket\0A\00", align 1
@.str.9 = private unnamed_addr constant [10 x i8] c"connect()\00", align 1
@.str.10 = private unnamed_addr constant [56 x i8] c"getdsig: Can't connect to ClamAV Signing Service at %s\0A\00", align 1
@.str.11 = private unnamed_addr constant [16 x i8] c"ClamSign:%s:%s:\00", align 1
@.str.12 = private unnamed_addr constant [19 x i8] c"ClamSignPSS:%s:%s:\00", align 1
@.str.13 = private unnamed_addr constant [20 x i8] c"ClamSignPSS2:%s:%s:\00", align 1
@.str.14 = private unnamed_addr constant [32 x i8] c"getdsig: Can't write to socket\0A\00", align 1
@.str.15 = private unnamed_addr constant [11 x i8] c"Signature:\00", align 1
@.str.16 = private unnamed_addr constant [45 x i8] c"getdsig: Error generating digital signature\0A\00", align 1
@.str.17 = private unnamed_addr constant [40 x i8] c"getdsig: Answer from remote server: %s\0A\00", align 1
@.str.18 = private unnamed_addr constant [35 x i8] c"Signature received (length = %lu)\0A\00", align 1
@.str.19 = private unnamed_addr constant [49 x i8] c"getdsig: Communication error with remote server\0A\00", align 1

; Function Attrs: nounwind uwtable
define ptr @cli_getdsig(ptr noundef %0, ptr noundef %1, ptr noundef %2, i32 noundef %3, i16 noundef zeroext %4) #0 {
  %6 = alloca ptr, align 8
  %7 = alloca ptr, align 8
  %8 = alloca ptr, align 8
  %9 = alloca ptr, align 8
  %10 = alloca i32, align 4
  %11 = alloca i16, align 2
  %12 = alloca [512 x i8], align 16
  %13 = alloca [128 x i8], align 16
  %14 = alloca [31 x i8], align 16
  %15 = alloca ptr, align 8
  %16 = alloca %struct.sockaddr_in, align 4
  %17 = alloca i32, align 4
  %18 = alloca i32, align 4
  %19 = alloca i32, align 4
  %20 = alloca %struct.termios, align 4
  %21 = alloca %struct.termios, align 4
  %22 = alloca %union.__CONST_SOCKADDR_ARG, align 8
  store ptr %0, ptr %7, align 8
  store ptr %1, ptr %8, align 8
  store ptr %2, ptr %9, align 8
  store i32 %3, ptr %10, align 4
  store i16 %4, ptr %11, align 2
  call void @llvm.memset.p0.i64(ptr align 4 %16, i8 0, i64 16, i1 false)
  %23 = call ptr @getenv(ptr noundef @.str) #8
  store ptr %23, ptr %15, align 8
  %24 = icmp ne ptr %23, null
  br i1 %24, label %25, label %30

25:                                               ; preds = %5
  %26 = getelementptr inbounds [31 x i8], ptr %14, i64 0, i64 0
  %27 = load ptr, ptr %15, align 8
  %28 = call ptr @strncpy(ptr noundef %26, ptr noundef %27, i64 noundef 31) #8
  %29 = getelementptr inbounds [31 x i8], ptr %14, i64 0, i64 30
  store i8 0, ptr %29, align 2
  br label %53

30:                                               ; preds = %5
  call void (ptr, ptr, ...) @cli_infomsg(ptr noundef null, ptr noundef @.str.1)
  %31 = call i32 @tcgetattr(i32 noundef 0, ptr noundef %20) #8
  %32 = icmp ne i32 %31, 0
  br i1 %32, label %33, label %34

33:                                               ; preds = %30
  call void (ptr, ...) @cli_errmsg(ptr noundef @.str.2)
  store ptr null, ptr %6, align 8
  br label %172

34:                                               ; preds = %30
  call void @llvm.memcpy.p0.p0.i64(ptr align 4 %21, ptr align 4 %20, i64 60, i1 false)
  %35 = getelementptr inbounds %struct.termios, ptr %21, i32 0, i32 3
  %36 = load i32, ptr %35, align 4
  %37 = and i32 %36, -9
  store i32 %37, ptr %35, align 4
  %38 = call i32 @tcsetattr(i32 noundef 0, i32 noundef 2, ptr noundef %21) #8
  %39 = icmp ne i32 %38, 0
  br i1 %39, label %40, label %41

40:                                               ; preds = %34
  call void (ptr, ...) @cli_errmsg(ptr noundef @.str.3)
  store ptr null, ptr %6, align 8
  br label %172

41:                                               ; preds = %34
  %42 = getelementptr inbounds [31 x i8], ptr %14, i64 0, i64 0
  %43 = call i32 (ptr, ...) @scanf(ptr noundef @.str.4, ptr noundef %42)
  %44 = icmp eq i32 %43, -1
  br i1 %44, label %45, label %47

45:                                               ; preds = %41
  call void (ptr, ...) @cli_errmsg(ptr noundef @.str.5)
  %46 = call i32 @tcsetattr(i32 noundef 0, i32 noundef 2, ptr noundef %20) #8
  store ptr null, ptr %6, align 8
  br label %172

47:                                               ; preds = %41
  %48 = call i32 @tcsetattr(i32 noundef 0, i32 noundef 2, ptr noundef %20) #8
  %49 = icmp ne i32 %48, 0
  br i1 %49, label %50, label %52

50:                                               ; preds = %47
  call void (ptr, ...) @cli_errmsg(ptr noundef @.str.3)
  %51 = getelementptr inbounds [31 x i8], ptr %14, i64 0, i64 0
  call void @llvm.memset.p0.i64(ptr align 16 %51, i8 0, i64 31, i1 false)
  store ptr null, ptr %6, align 8
  br label %172

52:                                               ; preds = %47
  call void (ptr, ptr, ...) @cli_infomsg(ptr noundef null, ptr noundef @.str.6)
  br label %53

53:                                               ; preds = %52, %25
  %54 = call i32 @socket(i32 noundef 2, i32 noundef 1, i32 noundef 0) #8
  store i32 %54, ptr %17, align 4
  %55 = icmp slt i32 %54, 0
  br i1 %55, label %56, label %58

56:                                               ; preds = %53
  call void @perror(ptr noundef @.str.7)
  call void (ptr, ...) @cli_errmsg(ptr noundef @.str.8)
  %57 = getelementptr inbounds [31 x i8], ptr %14, i64 0, i64 0
  call void @llvm.memset.p0.i64(ptr align 16 %57, i8 0, i64 31, i1 false)
  store ptr null, ptr %6, align 8
  br label %172

58:                                               ; preds = %53
  %59 = getelementptr inbounds %struct.sockaddr_in, ptr %16, i32 0, i32 0
  store i16 2, ptr %59, align 4
  %60 = load ptr, ptr %7, align 8
  %61 = call i32 @inet_addr(ptr noundef %60) #8
  %62 = getelementptr inbounds %struct.sockaddr_in, ptr %16, i32 0, i32 2
  %63 = getelementptr inbounds %struct.in_addr, ptr %62, i32 0, i32 0
  store i32 %61, ptr %63, align 4
  %64 = call zeroext i16 @htons(i16 noundef zeroext -32435) #9
  %65 = getelementptr inbounds %struct.sockaddr_in, ptr %16, i32 0, i32 1
  store i16 %64, ptr %65, align 2
  %66 = load i32, ptr %17, align 4
  store ptr %16, ptr %22, align 8
  %67 = getelementptr inbounds %union.__CONST_SOCKADDR_ARG, ptr %22, i32 0, i32 0
  %68 = load ptr, ptr %67, align 8
  %69 = call i32 @connect(i32 noundef %66, ptr %68, i32 noundef 16)
  %70 = icmp slt i32 %69, 0
  br i1 %70, label %71, label %76

71:                                               ; preds = %58
  call void @perror(ptr noundef @.str.9)
  %72 = load i32, ptr %17, align 4
  %73 = call i32 @close(i32 noundef %72)
  %74 = load ptr, ptr %7, align 8
  call void (ptr, ...) @cli_errmsg(ptr noundef @.str.10, ptr noundef %74)
  %75 = getelementptr inbounds [31 x i8], ptr %14, i64 0, i64 0
  call void @llvm.memset.p0.i64(ptr align 16 %75, i8 0, i64 31, i1 false)
  store ptr null, ptr %6, align 8
  br label %172

76:                                               ; preds = %58
  %77 = getelementptr inbounds [128 x i8], ptr %13, i64 0, i64 0
  call void @llvm.memset.p0.i64(ptr align 16 %77, i8 0, i64 128, i1 false)
  %78 = load i16, ptr %11, align 2
  %79 = zext i16 %78 to i32
  %80 = icmp eq i32 %79, 1
  br i1 %80, label %81, label %89

81:                                               ; preds = %76
  %82 = getelementptr inbounds [128 x i8], ptr %13, i64 0, i64 0
  %83 = load i32, ptr %10, align 4
  %84 = zext i32 %83 to i64
  %85 = sub i64 128, %84
  %86 = load ptr, ptr %8, align 8
  %87 = getelementptr inbounds [31 x i8], ptr %14, i64 0, i64 0
  %88 = call i32 (ptr, i64, ptr, ...) @snprintf(ptr noundef %82, i64 noundef %85, ptr noundef @.str.11, ptr noundef %86, ptr noundef %87) #8
  br label %110

89:                                               ; preds = %76
  %90 = load i16, ptr %11, align 2
  %91 = zext i16 %90 to i32
  %92 = icmp eq i32 %91, 2
  br i1 %92, label %93, label %101

93:                                               ; preds = %89
  %94 = getelementptr inbounds [128 x i8], ptr %13, i64 0, i64 0
  %95 = load i32, ptr %10, align 4
  %96 = zext i32 %95 to i64
  %97 = sub i64 128, %96
  %98 = load ptr, ptr %8, align 8
  %99 = getelementptr inbounds [31 x i8], ptr %14, i64 0, i64 0
  %100 = call i32 (ptr, i64, ptr, ...) @snprintf(ptr noundef %94, i64 noundef %97, ptr noundef @.str.12, ptr noundef %98, ptr noundef %99) #8
  br label %109

101:                                              ; preds = %89
  %102 = getelementptr inbounds [128 x i8], ptr %13, i64 0, i64 0
  %103 = load i32, ptr %10, align 4
  %104 = zext i32 %103 to i64
  %105 = sub i64 128, %104
  %106 = load ptr, ptr %8, align 8
  %107 = getelementptr inbounds [31 x i8], ptr %14, i64 0, i64 0
  %108 = call i32 (ptr, i64, ptr, ...) @snprintf(ptr noundef %102, i64 noundef %105, ptr noundef @.str.13, ptr noundef %106, ptr noundef %107) #8
  br label %109

109:                                              ; preds = %101, %93
  br label %110

110:                                              ; preds = %109, %81
  %111 = getelementptr inbounds [128 x i8], ptr %13, i64 0, i64 0
  %112 = call i64 @strlen(ptr noundef %111) #10
  %113 = trunc i64 %112 to i32
  store i32 %113, ptr %19, align 4
  %114 = getelementptr inbounds [128 x i8], ptr %13, i64 0, i64 0
  %115 = load i32, ptr %19, align 4
  %116 = sext i32 %115 to i64
  %117 = getelementptr inbounds i8, ptr %114, i64 %116
  store ptr %117, ptr %15, align 8
  %118 = load ptr, ptr %15, align 8
  %119 = load ptr, ptr %9, align 8
  %120 = load i32, ptr %10, align 4
  %121 = zext i32 %120 to i64
  call void @llvm.memcpy.p0.p0.i64(ptr align 1 %118, ptr align 1 %119, i64 %121, i1 false)
  %122 = load i32, ptr %10, align 4
  %123 = load i32, ptr %19, align 4
  %124 = add i32 %123, %122
  store i32 %124, ptr %19, align 4
  %125 = load i32, ptr %17, align 4
  %126 = getelementptr inbounds [128 x i8], ptr %13, i64 0, i64 0
  %127 = load i32, ptr %19, align 4
  %128 = sext i32 %127 to i64
  %129 = call i64 @send(i32 noundef %125, ptr noundef %126, i64 noundef %128, i32 noundef 0)
  %130 = icmp slt i64 %129, 0
  br i1 %130, label %131, label %136

131:                                              ; preds = %110
  call void (ptr, ...) @cli_errmsg(ptr noundef @.str.14)
  %132 = load i32, ptr %17, align 4
  %133 = call i32 @close(i32 noundef %132)
  %134 = getelementptr inbounds [128 x i8], ptr %13, i64 0, i64 0
  call void @llvm.memset.p0.i64(ptr align 16 %134, i8 0, i64 128, i1 false)
  %135 = getelementptr inbounds [31 x i8], ptr %14, i64 0, i64 0
  call void @llvm.memset.p0.i64(ptr align 16 %135, i8 0, i64 31, i1 false)
  store ptr null, ptr %6, align 8
  br label %172

136:                                              ; preds = %110
  %137 = getelementptr inbounds [128 x i8], ptr %13, i64 0, i64 0
  call void @llvm.memset.p0.i64(ptr align 16 %137, i8 0, i64 128, i1 false)
  %138 = getelementptr inbounds [31 x i8], ptr %14, i64 0, i64 0
  call void @llvm.memset.p0.i64(ptr align 16 %138, i8 0, i64 31, i1 false)
  %139 = getelementptr inbounds [512 x i8], ptr %12, i64 0, i64 0
  call void @llvm.memset.p0.i64(ptr align 16 %139, i8 0, i64 512, i1 false)
  %140 = load i32, ptr %17, align 4
  %141 = getelementptr inbounds [512 x i8], ptr %12, i64 0, i64 0
  %142 = call i64 @recv(i32 noundef %140, ptr noundef %141, i64 noundef 511, i32 noundef 0)
  %143 = trunc i64 %142 to i32
  store i32 %143, ptr %18, align 4
  %144 = icmp sgt i32 %143, 0
  br i1 %144, label %145, label %161

145:                                              ; preds = %136
  %146 = load i32, ptr %18, align 4
  %147 = sext i32 %146 to i64
  %148 = getelementptr inbounds [512 x i8], ptr %12, i64 0, i64 %147
  store i8 0, ptr %148, align 1
  %149 = getelementptr inbounds [512 x i8], ptr %12, i64 0, i64 0
  %150 = call ptr @strstr(ptr noundef %149, ptr noundef @.str.15) #10
  %151 = icmp ne ptr %150, null
  br i1 %151, label %156, label %152

152:                                              ; preds = %145
  call void (ptr, ...) @cli_errmsg(ptr noundef @.str.16)
  %153 = getelementptr inbounds [512 x i8], ptr %12, i64 0, i64 0
  call void (ptr, ...) @cli_errmsg(ptr noundef @.str.17, ptr noundef %153)
  %154 = load i32, ptr %17, align 4
  %155 = call i32 @close(i32 noundef %154)
  store ptr null, ptr %6, align 8
  br label %172

156:                                              ; preds = %145
  %157 = getelementptr inbounds [512 x i8], ptr %12, i64 0, i64 0
  %158 = call i64 @strlen(ptr noundef %157) #10
  %159 = sub i64 %158, 10
  call void (ptr, ptr, ...) @cli_infomsg(ptr noundef null, ptr noundef @.str.18, i64 noundef %159)
  br label %160

160:                                              ; preds = %156
  br label %164

161:                                              ; preds = %136
  call void (ptr, ...) @cli_errmsg(ptr noundef @.str.19)
  %162 = load i32, ptr %17, align 4
  %163 = call i32 @close(i32 noundef %162)
  store ptr null, ptr %6, align 8
  br label %172

164:                                              ; preds = %160
  %165 = load i32, ptr %17, align 4
  %166 = call i32 @close(i32 noundef %165)
  %167 = getelementptr inbounds [512 x i8], ptr %12, i64 0, i64 0
  store ptr %167, ptr %15, align 8
  %168 = load ptr, ptr %15, align 8
  %169 = getelementptr inbounds i8, ptr %168, i64 10
  store ptr %169, ptr %15, align 8
  %170 = load ptr, ptr %15, align 8
  %171 = call noalias ptr @strdup(ptr noundef %170) #8
  store ptr %171, ptr %6, align 8
  br label %172

172:                                              ; preds = %164, %161, %152, %131, %71, %56, %50, %45, %40, %33
  %173 = load ptr, ptr %6, align 8
  ret ptr %173
}