; Function Attrs: nounwind uwtable
define noalias ptr @cli_getdsig(ptr noundef %0, ptr noundef %1, ptr nocapture noundef readonly %2, i32 noundef %3, i16 noundef zeroext %4) local_unnamed_addr #0 {
  %6 = alloca [512 x i8], align 16
  %7 = alloca [128 x i8], align 16
  %8 = alloca [31 x i8], align 16
  %9 = alloca %struct.sockaddr_in, align 4
  %10 = alloca %struct.termios, align 4
  %11 = alloca %struct.termios, align 4
  %12 = getelementptr inbounds i8, ptr %9, i64 8
  store i64 0, ptr %12, align 4
  %13 = tail call ptr @getenv(ptr noundef nonnull @.str) #14
  %.not = icmp eq ptr %13, null
  br i1 %.not, label %17, label %14

14:                                               ; preds = %5
  %15 = call ptr @strncpy(ptr noundef nonnull dereferenceable(1) %8, ptr noundef nonnull dereferenceable(1) %13, i64 noundef 31) #14
  %16 = getelementptr inbounds i8, ptr %8, i64 30
  store i8 0, ptr %16, align 2
  br label %35

17:                                               ; preds = %5
  tail call void (ptr, ptr, ...) @cli_infomsg(ptr noundef null, ptr noundef nonnull @.str.1) #14
  %18 = call i32 @tcgetattr(i32 noundef 0, ptr noundef nonnull %10) #14
  %.not33 = icmp eq i32 %18, 0
  br i1 %.not33, label %20, label %19

19:                                               ; preds = %17
  call void (ptr, ...) @cli_errmsg(ptr noundef nonnull @.str.2) #14
  br label %80

20:                                               ; preds = %17
  call void @llvm.memcpy.p0.p0.i64(ptr noundef nonnull align 4 dereferenceable(60) %11, ptr noundef nonnull align 4 dereferenceable(60) %10, i64 60, i1 false)
  %21 = getelementptr inbounds i8, ptr %11, i64 12
  %22 = load i32, ptr %21, align 4
  %23 = and i32 %22, -9
  store i32 %23, ptr %21, align 4
  %24 = call i32 @tcsetattr(i32 noundef 0, i32 noundef 2, ptr noundef nonnull %11) #14
  %.not34 = icmp eq i32 %24, 0
  br i1 %.not34, label %26, label %25

25:                                               ; preds = %20
  call void (ptr, ...) @cli_errmsg(ptr noundef nonnull @.str.3) #14
  br label %80

26:                                               ; preds = %20
  %27 = call i32 (ptr, ...) @scanf(ptr noundef nonnull @.str.4, ptr noundef nonnull %8)
  %28 = icmp eq i32 %27, -1
  br i1 %28, label %29, label %31

29:                                               ; preds = %26
  call void (ptr, ...) @cli_errmsg(ptr noundef nonnull @.str.5) #14
  %30 = call i32 @tcsetattr(i32 noundef 0, i32 noundef 2, ptr noundef nonnull %10) #14
  br label %80

31:                                               ; preds = %26
  %32 = call i32 @tcsetattr(i32 noundef 0, i32 noundef 2, ptr noundef nonnull %10) #14
  %.not35 = icmp eq i32 %32, 0
  br i1 %.not35, label %34, label %33

33:                                               ; preds = %31
  call void (ptr, ...) @cli_errmsg(ptr noundef nonnull @.str.3) #14
  br label %80

34:                                               ; preds = %31
  call void (ptr, ptr, ...) @cli_infomsg(ptr noundef null, ptr noundef nonnull @.str.6) #14
  br label %35

35:                                               ; preds = %34, %14
  %36 = call i32 @socket(i32 noundef 2, i32 noundef 1, i32 noundef 0) #14
  %37 = icmp slt i32 %36, 0
  br i1 %37, label %38, label %39

38:                                               ; preds = %35
  call void @perror(ptr noundef nonnull @.str.7) #15
  call void (ptr, ...) @cli_errmsg(ptr noundef nonnull @.str.8) #14
  br label %80

39:                                               ; preds = %35
  store i16 2, ptr %9, align 4
  %40 = call i32 @inet_addr(ptr noundef %0) #14
  %41 = getelementptr inbounds i8, ptr %9, i64 4
  store i32 %40, ptr %41, align 4
  %42 = call zeroext i16 @htons(i16 noundef zeroext -32435) #16
  %43 = getelementptr inbounds i8, ptr %9, i64 2
  store i16 %42, ptr %43, align 2
  %44 = call i32 @connect(i32 noundef %36, ptr nonnull %9, i32 noundef 16) #14
  %45 = icmp slt i32 %44, 0
  br i1 %45, label %46, label %48

46:                                               ; preds = %39
  call void @perror(ptr noundef nonnull @.str.9) #15
  %47 = call i32 @close(i32 noundef %36) #14
  call void (ptr, ...) @cli_errmsg(ptr noundef nonnull @.str.10, ptr noundef %0) #14
  br label %80

48:                                               ; preds = %39
  call void @llvm.memset.p0.i64(ptr noundef nonnull align 16 dereferenceable(128) %7, i8 0, i64 128, i1 false)
  %49 = zext i32 %3 to i64
  %50 = sub nsw i64 128, %49
  %switch.selectcmp = icmp eq i16 %4, 2
  %switch.select = select i1 %switch.selectcmp, ptr @.str.12, ptr @.str.13
  %switch.selectcmp37 = icmp eq i16 %4, 1
  %switch.select38 = select i1 %switch.selectcmp37, ptr @.str.11, ptr %switch.select
  %51 = call i32 (ptr, i64, ptr, ...) @snprintf(ptr noundef nonnull %7, i64 noundef %50, ptr noundef nonnull %switch.select38, ptr noundef %1, ptr noundef nonnull %8) #14
  %52 = call i64 @strlen(ptr noundef nonnull dereferenceable(1) %7) #17
  %53 = trunc i64 %52 to i32
  %sext = shl i64 %52, 32
  %54 = ashr exact i64 %sext, 32
  %55 = getelementptr inbounds i8, ptr %7, i64 %54
  call void @llvm.memcpy.p0.p0.i64(ptr nonnull align 1 %55, ptr align 1 %2, i64 %49, i1 false)
  %56 = add i32 %53, %3
  %57 = sext i32 %56 to i64
  %58 = call i64 @send(i32 noundef %36, ptr noundef nonnull %7, i64 noundef %57, i32 noundef 0) #14
  %59 = icmp slt i64 %58, 0
  br i1 %59, label %60, label %62

60:                                               ; preds = %48
  call void (ptr, ...) @cli_errmsg(ptr noundef nonnull @.str.14) #14
  %61 = call i32 @close(i32 noundef %36) #14
  br label %80

62:                                               ; preds = %48
  call void @llvm.memset.p0.i64(ptr noundef nonnull align 16 dereferenceable(128) %7, i8 0, i64 128, i1 false)
  call void @llvm.memset.p0.i64(ptr noundef nonnull align 16 dereferenceable(31) %8, i8 0, i64 31, i1 false)
  call void @llvm.memset.p0.i64(ptr noundef nonnull align 16 dereferenceable(512) %6, i8 0, i64 512, i1 false)
  %63 = call i64 @recv(i32 noundef %36, ptr noundef nonnull %6, i64 noundef 511, i32 noundef 0) #14
  %64 = trunc i64 %63 to i32
  %65 = icmp sgt i32 %64, 0
  br i1 %65, label %66, label %78

66:                                               ; preds = %62
  %67 = and i64 %63, 2147483647
  %68 = getelementptr inbounds [512 x i8], ptr %6, i64 0, i64 %67
  store i8 0, ptr %68, align 1
  %69 = call ptr @strstr(ptr noundef nonnull dereferenceable(1) %6, ptr noundef nonnull dereferenceable(1) @.str.15) #17
  %.not36 = icmp eq ptr %69, null
  br i1 %.not36, label %70, label %72

70:                                               ; preds = %66
  call void (ptr, ...) @cli_errmsg(ptr noundef nonnull @.str.16) #14
  call void (ptr, ...) @cli_errmsg(ptr noundef nonnull @.str.17, ptr noundef nonnull %6) #14
  %71 = call i32 @close(i32 noundef %36) #14
  br label %80

72:                                               ; preds = %66
  %73 = call i64 @strlen(ptr noundef nonnull dereferenceable(1) %6) #17
  %74 = add i64 %73, -10
  call void (ptr, ptr, ...) @cli_infomsg(ptr noundef null, ptr noundef nonnull @.str.18, i64 noundef %74) #14
  %75 = call i32 @close(i32 noundef %36) #14
  %76 = getelementptr inbounds i8, ptr %6, i64 10
  %77 = call noalias ptr @strdup(ptr noundef nonnull %76) #14
  br label %80

78:                                               ; preds = %62
  call void (ptr, ...) @cli_errmsg(ptr noundef nonnull @.str.19) #14
  %79 = call i32 @close(i32 noundef %36) #14
  br label %80

80:                                               ; preds = %72, %78, %70, %60, %46, %38, %33, %29, %25, %19
  %.0 = phi ptr [ null, %38 ], [ null, %46 ], [ null, %60 ], [ %77, %72 ], [ null, %70 ], [ null, %78 ], [ null, %19 ], [ null, %25 ], [ null, %29 ], [ null, %33 ]
  ret ptr %.0
}